target datalayout = "e-m:e-p270:32:32-p271:32:32-p272:64:64-i64:64-i128:128-f80:128-n8:16:32:64-S128"
target triple = "x86_64-pc-linux-gnu"

%"class.icu_77::FormattedStringBuilder" = type { i8, %"union.icu_77::FormattedStringBuilder::ValueOrHeapArray", %"union.icu_77::FormattedStringBuilder::ValueOrHeapArray.0", i32, i32 }
%"union.icu_77::FormattedStringBuilder::ValueOrHeapArray" = type { %struct.anon, [64 x i8] }
%struct.anon = type { ptr, i32 }
%"union.icu_77::FormattedStringBuilder::ValueOrHeapArray.0" = type { %struct.anon.1, [24 x i8] }
%struct.anon.1 = type { ptr, i32 }

; Function Attrs: inlinehint mustprogress nounwind uwtable
define linkonce_odr noundef ptr @_ZNK6icu_7722FormattedStringBuilder10getCharPtrEv(ptr noundef nonnull align 8 dereferenceable(136) %0) #5 comdat align 2 {
  %2 = alloca ptr, align 8
  store ptr %0, ptr %2, align 8, !tbaa !3
  %3 = load ptr, ptr %2, align 8
  %4 = getelementptr inbounds nuw %"class.icu_77::FormattedStringBuilder", ptr %3, i32 0, i32 0
  %5 = load i8, ptr %4, align 8, !tbaa !8, !range !14, !noundef !15
  %6 = trunc i8 %5 to i1
  br i1 %6, label %7, label %11

7:                                                ; preds = %1
  %8 = getelementptr inbounds nuw %"class.icu_77::FormattedStringBuilder", ptr %3, i32 0, i32 1
  %9 = getelementptr inbounds nuw %struct.anon, ptr %8, i32 0, i32 0
  %10 = load ptr, ptr %9, align 8, !tbaa !16
  br label %14

11:                                               ; preds = %1
  %12 = getelementptr inbounds nuw %"class.icu_77::FormattedStringBuilder", ptr %3, i32 0, i32 1
  %13 = getelementptr inbounds [40 x i16], ptr %12, i64 0, i64 0
  br label %14

14:                                               ; preds = %11, %7
  %15 = phi ptr [ %10, %7 ], [ %13, %11 ]
  ret ptr %15
}

; Function Attrs: mustprogress uwtable
define noundef i32 @_ZNK6icu_7722FormattedStringBuilder16getLastCodePointEv(ptr noundef nonnull align 8 dereferenceable(136) %0) #3 align 2 {
  %2 = alloca i32, align 4
  %3 = alloca ptr, align 8
  %4 = alloca i32, align 4
  %5 = alloca i32, align 4
  %6 = alloca i16, align 2
  store ptr %0, ptr %3, align 8, !tbaa !3
  %7 = load ptr, ptr %3, align 8
  %8 = getelementptr inbounds nuw %"class.icu_77::FormattedStringBuilder", ptr %7, i32 0, i32 4
  %9 = load i32, ptr %8, align 4, !tbaa !13
  %10 = icmp eq i32 %9, 0
  br i1 %10, label %11, label %12

11:                                               ; preds = %1
  store i32 -1, ptr %2, align 4
  br label %128

12:                                               ; preds = %1
  call void @llvm.lifetime.start.p0(i64 4, ptr %4) #11
  %13 = getelementptr inbounds nuw %"class.icu_77::FormattedStringBuilder", ptr %7, i32 0, i32 4
  %14 = load i32, ptr %13, align 4, !tbaa !13
  store i32 %14, ptr %4, align 4, !tbaa !17
  br label %15

15:                                               ; preds = %12
  %16 = call noundef ptr @_ZNK6icu_7722FormattedStringBuilder10getCharPtrEv(ptr noundef nonnull align 8 dereferenceable(136) %7)
  %17 = getelementptr inbounds nuw %"class.icu_77::FormattedStringBuilder", ptr %7, i32 0, i32 3
  %18 = load i32, ptr %17, align 8, !tbaa !12
  %19 = sext i32 %18 to i64
  %20 = getelementptr inbounds i16, ptr %16, i64 %19
  %21 = load i32, ptr %4, align 4, !tbaa !17
  %22 = add nsw i32 %21, -1
  store i32 %22, ptr %4, align 4, !tbaa !17
  %23 = sext i32 %22 to i64
  %24 = getelementptr inbounds i16, ptr %20, i64 %23
  %25 = load i16, ptr %24, align 2, !tbaa !25
  %26 = zext i16 %25 to i32
  %27 = and i32 %26, -1024
  %28 = icmp eq i32 %27, 56320
  br i1 %28, label %29, label %49

29:                                               ; preds = %15
  %30 = load i32, ptr %4, align 4, !tbaa !17
  %31 = icmp sgt i32 %30, 0
  br i1 %31, label %32, label %49

32:                                               ; preds = %29
  %33 = call noundef ptr @_ZNK6icu_7722FormattedStringBuilder10getCharPtrEv(ptr noundef nonnull align 8 dereferenceable(136) %7)
  %34 = getelementptr inbounds nuw %"class.icu_77::FormattedStringBuilder", ptr %7, i32 0, i32 3
  %35 = load i32, ptr %34, align 8, !tbaa !12
  %36 = sext i32 %35 to i64
  %37 = getelementptr inbounds i16, ptr %33, i64 %36
  %38 = load i32, ptr %4, align 4, !tbaa !17
  %39 = sub nsw i32 %38, 1
  %40 = sext i32 %39 to i64
  %41 = getelementptr inbounds i16, ptr %37, i64 %40
  %42 = load i16, ptr %41, align 2, !tbaa !25
  %43 = zext i16 %42 to i32
  %44 = and i32 %43, -1024
  %45 = icmp eq i32 %44, 55296
  br i1 %45, label %46, label %49

46:                                               ; preds = %32
  %47 = load i32, ptr %4, align 4, !tbaa !17
  %48 = add nsw i32 %47, -1
  store i32 %48, ptr %4, align 4, !tbaa !17
  br label %49

49:                                               ; preds = %46, %32, %29, %15
  br label %50

50:                                               ; preds = %49
  br label %51

51:                                               ; preds = %50
  call void @llvm.lifetime.start.p0(i64 4, ptr %5) #11
  br label %52

52:                                               ; preds = %51
  %53 = call noundef ptr @_ZNK6icu_7722FormattedStringBuilder10getCharPtrEv(ptr noundef nonnull align 8 dereferenceable(136) %7)
  %54 = getelementptr inbounds nuw %"class.icu_77::FormattedStringBuilder", ptr %7, i32 0, i32 3
  %55 = load i32, ptr %54, align 8, !tbaa !12
  %56 = sext i32 %55 to i64
  %57 = getelementptr inbounds i16, ptr %53, i64 %56
  %58 = load i32, ptr %4, align 4, !tbaa !17
  %59 = sext i32 %58 to i64
  %60 = getelementptr inbounds i16, ptr %57, i64 %59
  %61 = load i16, ptr %60, align 2, !tbaa !25
  %62 = zext i16 %61 to i32
  store i32 %62, ptr %5, align 4, !tbaa !17
  %63 = load i32, ptr %5, align 4, !tbaa !17
  %64 = and i32 %63, -2048
  %65 = icmp eq i32 %64, 55296
  br i1 %65, label %66, label %124

66:                                               ; preds = %52
  call void @llvm.lifetime.start.p0(i64 2, ptr %6) #11
  %67 = load i32, ptr %5, align 4, !tbaa !17
  %68 = and i32 %67, 1024
  %69 = icmp eq i32 %68, 0
  br i1 %69, label %70, label %98

70:                                               ; preds = %66
  %71 = load i32, ptr %4, align 4, !tbaa !17
  %72 = add nsw i32 %71, 1
  %73 = getelementptr inbounds nuw %"class.icu_77::FormattedStringBuilder", ptr %7, i32 0, i32 4
  %74 = load i32, ptr %73, align 4, !tbaa !13
  %75 = icmp ne i32 %72, %74
  br i1 %75, label %76, label %97

76:                                               ; preds = %70
  %77 = call noundef ptr @_ZNK6icu_7722FormattedStringBuilder10getCharPtrEv(ptr noundef nonnull align 8 dereferenceable(136) %7)
  %78 = getelementptr inbounds nuw %"class.icu_77::FormattedStringBuilder", ptr %7, i32 0, i32 3
  %79 = load i32, ptr %78, align 8, !tbaa !12
  %80 = sext i32 %79 to i64
  %81 = getelementptr inbounds i16, ptr %77, i64 %80
  %82 = load i32, ptr %4, align 4, !tbaa !17
  %83 = add nsw i32 %82, 1
  %84 = sext i32 %83 to i64
  %85 = getelementptr inbounds i16, ptr %81, i64 %84
  %86 = load i16, ptr %85, align 2, !tbaa !25
  store i16 %86, ptr %6, align 2, !tbaa !27
  %87 = zext i16 %86 to i32
  %88 = and i32 %87, -1024
  %89 = icmp eq i32 %88, 56320
  br i1 %89, label %90, label %97

90:                                               ; preds = %76
  %91 = load i32, ptr %5, align 4, !tbaa !17
  %92 = shl i32 %91, 10
  %93 = load i16, ptr %6, align 2, !tbaa !27
  %94 = zext i16 %93 to i32
  %95 = add nsw i32 %92, %94
  %96 = sub nsw i32 %95, 56613888
  store i32 %96, ptr %5, align 4, !tbaa !17
  br label %97

97:                                               ; preds = %90, %76, %70
  br label %123

98:                                               ; preds = %66
  %99 = load i32, ptr %4, align 4, !tbaa !17
  %100 = icmp sgt i32 %99, 0
  br i1 %100, label %101, label %122

101:                                              ; preds = %98
  %102 = call noundef ptr @_ZNK6icu_7722FormattedStringBuilder10getCharPtrEv(ptr noundef nonnull align 8 dereferenceable(136) %7)
  %103 = getelementptr inbounds nuw %"class.icu_77::FormattedStringBuilder", ptr %7, i32 0, i32 3
  %104 = load i32, ptr %103, align 8, !tbaa !12
  %105 = sext i32 %104 to i64
  %106 = getelementptr inbounds i16, ptr %102, i64 %105
  %107 = load i32, ptr %4, align 4, !tbaa !17
  %108 = sub nsw i32 %107, 1
  %109 = sext i32 %108 to i64
  %110 = getelementptr inbounds i16, ptr %106, i64 %109
  %111 = load i16, ptr %110, align 2, !tbaa !25
  store i16 %111, ptr %6, align 2, !tbaa !27
  %112 = zext i16 %111 to i32
  %113 = and i32 %112, -1024
  %114 = icmp eq i32 %113, 55296
  br i1 %114, label %115, label %122

115:                                              ; preds = %101
  %116 = load i16, ptr %6, align 2, !tbaa !27
  %117 = zext i16 %116 to i32
  %118 = shl i32 %117, 10
  %119 = load i32, ptr %5, align 4, !tbaa !17
  %120 = add nsw i32 %118, %119
  %121 = sub nsw i32 %120, 56613888
  store i32 %121, ptr %5, align 4, !tbaa !17
  br label %122

122:                                              ; preds = %115, %101, %98
  br label %123

123:                                              ; preds = %122, %97
  call void @llvm.lifetime.end.p0(i64 2, ptr %6) #11
  br label %124

124:                                              ; preds = %123, %52
  br label %125

125:                                              ; preds = %124
  br label %126

126:                                              ; preds = %125
  %127 = load i32, ptr %5, align 4, !tbaa !17
  store i32 %127, ptr %2, align 4
  call void @llvm.lifetime.end.p0(i64 4, ptr %5) #11
  call void @llvm.lifetime.end.p0(i64 4, ptr %4) #11
  br label %128

128:                                              ; preds = %126, %11
  %129 = load i32, ptr %2, align 4
  ret i32 %129
}