; Function Attrs: mustprogress nofree norecurse nosync nounwind willreturn memory(read, inaccessiblemem: none) uwtable
define noundef range(i32 -1, 10559488) i32 @_ZNK6icu_7722FormattedStringBuilder16getLastCodePointEv(ptr noundef nonnull readonly align 8 captures(none) dereferenceable(136) %0) local_unnamed_addr #9 align 2 {
  %2 = getelementptr inbounds nuw i8, ptr %0, i64 132
  %3 = load i32, ptr %2, align 4, !tbaa !10
  %4 = icmp eq i32 %3, 0
  br i1 %4, label %65, label %5

5:                                                ; preds = %1
  %6 = load i8, ptr %0, align 8, !tbaa !3, !range !11, !noundef !12
  %7 = trunc nuw i8 %6 to i1
  %8 = getelementptr inbounds nuw i8, ptr %0, i64 8
  %9 = load ptr, ptr %8, align 8
  %10 = select i1 %7, ptr %9, ptr %8
  %11 = getelementptr inbounds nuw i8, ptr %0, i64 128
  %12 = load i32, ptr %11, align 8, !tbaa !9
  %13 = sext i32 %12 to i64
  %14 = getelementptr inbounds i16, ptr %10, i64 %13
  %15 = add nsw i32 %3, -1
  %16 = sext i32 %15 to i64
  %17 = getelementptr inbounds i16, ptr %14, i64 %16
  %18 = load i16, ptr %17, align 2, !tbaa !14
  %19 = and i16 %18, -1024
  %20 = icmp eq i16 %19, -9216
  %21 = icmp sgt i32 %3, 1
  %or.cond = and i1 %21, %20
  br i1 %or.cond, label %22, label %30

22:                                               ; preds = %5
  %23 = zext nneg i32 %3 to i64
  %24 = getelementptr i16, ptr %14, i64 %23
  %25 = getelementptr i8, ptr %24, i64 -4
  %26 = load i16, ptr %25, align 2, !tbaa !14
  %27 = and i16 %26, -1024
  %28 = icmp eq i16 %27, -10240
  %29 = add nsw i32 %3, -2
  %spec.select = select i1 %28, i32 %29, i32 %15
  %.pre = zext nneg i32 %spec.select to i64
  %.phi.trans.insert = getelementptr inbounds nuw i16, ptr %14, i64 %.pre
  %.pre23 = load i16, ptr %.phi.trans.insert, align 2, !tbaa !14
  br label %30

30:                                               ; preds = %22, %5
  %31 = phi i16 [ %.pre23, %22 ], [ %18, %5 ]
  %.018 = phi i32 [ %spec.select, %22 ], [ %15, %5 ]
  %32 = zext i16 %31 to i32
  %33 = and i32 %32, 63488
  %34 = icmp eq i32 %33, 55296
  br i1 %34, label %35, label %65

35:                                               ; preds = %30
  %36 = and i32 %32, 1024
  %37 = icmp eq i32 %36, 0
  br i1 %37, label %38, label %51

38:                                               ; preds = %35
  %39 = add nuw nsw i32 %.018, 1
  %.not = icmp eq i32 %39, %3
  br i1 %.not, label %65, label %40

40:                                               ; preds = %38
  %41 = sext i32 %39 to i64
  %42 = getelementptr inbounds i16, ptr %14, i64 %41
  %43 = load i16, ptr %42, align 2, !tbaa !14
  %44 = zext i16 %43 to i32
  %45 = and i32 %44, 64512
  %46 = icmp eq i32 %45, 56320
  br i1 %46, label %47, label %65

47:                                               ; preds = %40
  %48 = shl nuw nsw i32 %32, 10
  %49 = add nsw i32 %48, -56613888
  %50 = add nuw nsw i32 %49, %44
  br label %65

51:                                               ; preds = %35
  %52 = icmp sgt i32 %.018, 0
  br i1 %52, label %53, label %65

53:                                               ; preds = %51
  %54 = zext nneg i32 %.018 to i64
  %55 = getelementptr i16, ptr %14, i64 %54
  %56 = getelementptr i8, ptr %55, i64 -2
  %57 = load i16, ptr %56, align 2, !tbaa !14
  %58 = zext i16 %57 to i32
  %59 = and i32 %58, 64512
  %60 = icmp eq i32 %59, 55296
  br i1 %60, label %61, label %65

61:                                               ; preds = %53
  %62 = shl nuw nsw i32 %58, 10
  %63 = add nuw nsw i32 %32, -56613888
  %64 = add nsw i32 %63, %62
  br label %65

65:                                               ; preds = %30, %51, %53, %61, %38, %40, %47, %1
  %.019 = phi i32 [ -1, %1 ], [ %32, %30 ], [ %50, %47 ], [ %32, %40 ], [ %32, %38 ], [ %64, %61 ], [ %32, %53 ], [ %32, %51 ]
  ret i32 %.019
}